Certificate:
    Data:
        Version: 3 (0x2)
        Serial Number: 10 (0xa)
        Signature Algorithm: sha1WithRSAEncryption
        Issuer: C=US, ST=Michigan, O=LON-CAPA, CN=LON-CAPA Consortium
        Validity
            Not Before: Mar  6 15:00:16 2014 GMT
            Not After : Mar  3 15:00:16 2024 GMT
        Subject: C=US, ST=Michigan, O=LON-CAPA, CN=slartibartfast.localdomain
        Subject Public Key Info:
            Public Key Algorithm: rsaEncryption
            RSA Public Key: (4096 bit)
                Modulus (4096 bit):
                    00:cd:12:83:77:be:c9:7e:34:10:56:9f:70:50:17:
                    c7:3d:39:5a:4a:27:d5:4d:f9:a7:9a:58:63:06:26:
                    61:bc:3d:21:a8:b2:a1:b6:2d:46:0e:19:93:ce:4a:
                    1e:bf:6f:7b:a4:63:1c:57:dd:2d:b1:66:d0:cd:ef:
                    3b:a0:d6:10:ff:4e:a0:2a:f2:7b:55:03:6c:d3:66:
                    f0:c9:17:7b:71:e0:ab:76:19:bd:44:a2:84:1e:1b:
                    5d:37:8e:60:35:8b:a6:c8:4e:d7:09:78:c2:92:92:
                    54:34:7a:69:31:6f:9f:f1:4a:43:8d:ee:d4:9a:80:
                    f8:0e:68:ce:fa:41:b8:0f:9a:a2:89:38:8c:26:41:
                    60:f4:ff:b2:4a:0a:3f:2c:1a:df:c8:71:1f:4a:40:
                    cb:15:e8:3e:21:d4:9c:d5:47:45:2f:61:b9:30:61:
                    e9:15:7d:7c:d3:ee:5c:b1:fe:b4:e2:15:4b:e3:2a:
                    d2:e4:04:e6:4d:15:9f:a0:aa:f2:7b:84:d9:d0:af:
                    aa:b8:ab:e8:df:51:e1:4c:6b:1e:1f:e9:f0:8f:f5:
                    d2:77:9f:2f:65:56:8a:de:b4:f7:a8:bc:63:36:22:
                    fc:12:59:b0:ea:bf:88:dd:c2:fa:d3:f7:57:3c:4f:
                    7f:f5:60:fa:da:98:9c:f3:72:6e:ea:9f:20:bd:02:
                    80:e0:de:48:10:9c:eb:36:a1:d6:ac:b3:b9:d4:7d:
                    d1:f0:89:27:4e:43:ea:7a:c7:80:83:da:3c:7f:1b:
                    24:44:8f:c9:0d:07:56:44:8e:14:ef:32:d6:70:1e:
                    14:79:d6:c8:9e:42:f4:cf:e6:e3:21:bc:a6:49:9c:
                    72:cc:f8:2b:e3:e5:f0:e4:01:b6:fc:0e:a9:11:58:
                    68:0f:9d:d2:ea:4d:53:f1:fb:cc:6f:30:39:5e:88:
                    8d:23:12:59:3e:43:ef:a2:71:b9:ce:0d:67:8f:3a:
                    6e:35:a9:2f:1a:c5:5b:66:9f:97:98:b0:7d:7f:82:
                    3a:52:fb:27:8d:f2:39:e4:90:98:39:d9:2d:8c:66:
                    ef:83:61:81:70:19:f2:68:94:c4:4d:43:bc:9a:a2:
                    5c:5c:40:f7:27:73:42:2a:66:74:22:00:4f:cb:a6:
                    59:f4:5b:11:2b:6e:cf:dd:e6:e7:4e:34:03:f0:c2:
                    19:51:c4:f0:ef:67:95:58:02:2b:07:3f:d0:9a:b2:
                    cf:08:a4:41:4d:5a:75:ab:eb:e8:63:20:76:2c:56:
                    c9:7e:12:8e:da:69:14:bb:2b:ba:c3:8f:f6:7d:b7:
                    40:4a:ec:0d:75:1d:f2:d0:c6:fc:85:13:d7:3e:0d:
                    56:7c:74:70:1a:4d:43:06:97:ae:f1:36:14:e1:2e:
                    3c:cf:7d
                Exponent: 65537 (0x10001)
        X509v3 extensions:
            X509v3 Basic Constraints: 
                CA:FALSE
            Netscape Comment: 
                OpenSSL Generated Certificate
            X509v3 Subject Key Identifier: 
                DC:66:90:1C:2D:8E:81:B6:D0:DC:06:77:8B:EE:34:12:7E:03:43:82
            X509v3 Authority Key Identifier: 
                DirName:/C=US/ST=Michigan/O=LON-CAPA/CN=LON-CAPA Consortium
                serial:C8:99:C9:69:8A:A1:0C:94

    Signature Algorithm: sha1WithRSAEncryption
        98:e6:9f:24:28:ff:c1:5e:a5:ee:aa:e8:48:87:61:ca:55:13:
        cc:d6:4f:bd:26:0c:61:19:2b:e3:d5:08:5f:e0:ea:af:02:92:
        db:4b:d2:7b:c2:6d:ee:3b:04:d6:c5:83:71:11:28:e0:50:7d:
        3c:ce:6c:e4:19:a5:8c:df:e3:61:f6:bd:d3:b9:db:5e:69:c5:
        38:aa:10:4f:fe:77:88:b3:bd:3c:66:33:db:a4:4d:72:35:5e:
        fd:94:14:5c:76:3b:f4:fd:15:0a:42:7c:9b:36:3e:db:e6:3a:
        65:eb:95:0b:7f:dc:4e:aa:0c:55:cb:98:87:db:b6:99:67:d9:
        00:a1:9e:ad:f9:7a:7f:ac:df:ce:6e:a0:d8:24:28:47:6a:81:
        dd:9c:26:13:40:f4:5e:fe:a7:c6:1a:55:a7:37:5f:97:a0:da:
        6e:c9:c3:f3:fb:38:0f:bf:5a:8f:fc:c5:01:4a:a8:3b:f8:e3:
        47:eb:8b:52:1c:47:46:f4:cd:30:ee:65:3d:c5:05:f0:b6:d1:
        98:43:5b:9c:9a:5f:09:48:bf:11:2c:71:e1:6d:db:08:af:42:
        77:87:43:e2:dd:3e:10:73:18:bc:01:01:e0:43:6e:06:6b:4a:
        61:a4:f0:6e:03:c6:8d:04:54:51:c0:66:0f:fd:a3:1f:32:d9:
        e1:66:be:3f:4c:9d:16:b8:c1:55:5f:74:06:61:da:16:3a:1a:
        10:a5:f0:49:5d:e3:f3:59:d2:36:5b:22:73:87:f7:28:a1:7d:
        41:93:02:85:84:11:9d:c6:b2:e6:fa:35:d9:c4:62:13:1c:f5:
        2e:16:18:fb:55:62:8e:6a:73:e8:32:b6:7c:cb:e9:fd:e6:3b:
        cc:3b:30:fb:72:75:c7:73:77:02:6a:c0:cb:d3:4a:f1:7c:16:
        f1:b9:ba:31:51:2e:81:c4:79:25:72:fc:15:fb:25:4e:43:7f:
        58:85:be:26:16:f0:64:be:82:16:bd:14:1a:42:d6:8b:c0:22:
        17:de:c7:e6:96:0a:03:ed:96:87:b2:00:95:5f:29:e7:f2:1c:
        28:5a:d3:ee:fe:6c:db:ea:43:0c:e0:4f:db:f5:6b:5b:7e:a0:
        a8:69:8e:50:6b:1a:96:73:85:ce:b5:75:39:d8:d1:c5:60:d9:
        2b:fb:36:86:47:63:8e:41:e9:bc:ad:66:87:43:5a:37:02:c9:
        37:e5:07:c8:4e:b3:c0:7a:78:27:dd:00:fb:38:8c:e0:96:20:
        2d:4d:ff:d1:12:06:55:15:b1:ee:c7:74:08:0f:47:a4:14:cf:
        39:7d:ef:82:ae:d4:b5:c6:f0:78:17:4b:5c:ea:cb:c9:69:3f:
        8c:81:c8:4e:da:85:51:c3
-----BEGIN CERTIFICATE-----
MIIF7TCCA9WgAwIBAgIBCjANBgkqhkiG9w0BAQUFADBRMQswCQYDVQQGEwJVUzER
MA8GA1UECBMITWljaGlnYW4xETAPBgNVBAoTCExPTi1DQVBBMRwwGgYDVQQDExNM
T04tQ0FQQSBDb25zb3J0aXVtMB4XDTE0MDMwNjE1MDAxNloXDTI0MDMwMzE1MDAx
NlowWDELMAkGA1UEBhMCVVMxETAPBgNVBAgTCE1pY2hpZ2FuMREwDwYDVQQKEwhM
T04tQ0FQQTEjMCEGA1UEAxMac2xhcnRpYmFydGZhc3QubG9jYWxkb21haW4wggIi
MA0GCSqGSIb3DQEBAQUAA4ICDwAwggIKAoICAQDNEoN3vsl+NBBWn3BQF8c9OVpK
J9VN+aeaWGMGJmG8PSGosqG2LUYOGZPOSh6/b3ukYxxX3S2xZtDN7zug1hD/TqAq
8ntVA2zTZvDJF3tx4Kt2Gb1EooQeG103jmA1i6bITtcJeMKSklQ0emkxb5/xSkON
7tSagPgOaM76QbgPmqKJOIwmQWD0/7JKCj8sGt/IcR9KQMsV6D4h1JzVR0UvYbkw
YekVfXzT7lyx/rTiFUvjKtLkBOZNFZ+gqvJ7hNnQr6q4q+jfUeFMax4f6fCP9dJ3
ny9lVoretPeovGM2IvwSWbDqv4jdwvrT91c8T3/1YPramJzzcm7qnyC9AoDg3kgQ
nOs2odass7nUfdHwiSdOQ+p6x4CD2jx/GyREj8kNB1ZEjhTvMtZwHhR51sieQvTP
5uMhvKZJnHLM+Cvj5fDkAbb8DqkRWGgPndLqTVPx+8xvMDleiI0jElk+Q++icbnO
DWePOm41qS8axVtmn5eYsH1/gjpS+yeN8jnkkJg52S2MZu+DYYFwGfJolMRNQ7ya
olxcQPcnc0IqZnQiAE/Lpln0WxErbs/d5udONAPwwhlRxPDvZ5VYAisHP9Cass8I
pEFNWnWr6+hjIHYsVsl+Eo7aaRS7K7rDj/Z9t0BK7A11HfLQxvyFE9c+DVZ8dHAa
TUMGl67xNhThLjzPfQIDAQABo4HIMIHFMAkGA1UdEwQCMAAwLAYJYIZIAYb4QgEN
BB8WHU9wZW5TU0wgR2VuZXJhdGVkIENlcnRpZmljYXRlMB0GA1UdDgQWBBTcZpAc
LY6BttDcBneL7jQSfgNDgjBrBgNVHSMEZDBioVWkUzBRMQswCQYDVQQGEwJVUzER
MA8GA1UECBMITWljaGlnYW4xETAPBgNVBAoTCExPTi1DQVBBMRwwGgYDVQQDExNM
T04tQ0FQQSBDb25zb3J0aXVtggkAyJnJaYqhDJQwDQYJKoZIhvcNAQEFBQADggIB
AJjmnyQo/8Fepe6q6EiHYcpVE8zWT70mDGEZK+PVCF/g6q8CkttL0nvCbe47BNbF
g3ERKOBQfTzObOQZpYzf42H2vdO5215pxTiqEE/+d4izvTxmM9ukTXI1Xv2UFFx2
O/T9FQpCfJs2PtvmOmXrlQt/3E6qDFXLmIfbtpln2QChnq35en+s385uoNgkKEdq
gd2cJhNA9F7+p8YaVac3X5eg2m7Jw/P7OA+/Wo/8xQFKqDv440fri1IcR0b0zTDu
ZT3FBfC20ZhDW5yaXwlIvxEsceFt2wivQneHQ+LdPhBzGLwBAeBDbgZrSmGk8G4D
xo0EVFHAZg/9ox8y2eFmvj9MnRa4wVVfdAZh2hY6GhCl8Eld4/NZ0jZbInOH9yih
fUGTAoWEEZ3Gsub6NdnEYhMc9S4WGPtVYo5qc+gytnzL6f3mO8w7MPtydcdzdwJq
wMvTSvF8FvG5ujFRLoHEeSVy/BX7JU5Df1iFviYW8GS+gha9FBpC1ovAIhfex+aW
CgPtloeyAJVfKefyHCha0+7+bNvqQwzgT9v1a1t+oKhpjlBrGpZzhc61dTnY0cVg
2Sv7NoZHY45B6bytZodDWjcCyTflB8hOs8B6eCfdAPs4jOCWIC1N/9ESBlUVse7H
dAgPR6QUzzl974Ku1LXG8HgXS1zqy8lpP4yByE7ahVHD
-----END CERTIFICATE-----
