Certificate:
    Data:
        Version: 3 (0x2)
        Serial Number: 7 (0x7)
        Signature Algorithm: sha1WithRSAEncryption
        Issuer: C=US, ST=Michigan, O=LON-CAPA, CN=LON-CAPA Consortium
        Validity
            Not Before: Mar  6 14:58:22 2014 GMT
            Not After : Mar  3 14:58:22 2024 GMT
        Subject: C=US, ST=Michigan, O=LON-CAPA, CN=zaphod.localdomain
        Subject Public Key Info:
            Public Key Algorithm: rsaEncryption
            RSA Public Key: (4096 bit)
                Modulus (4096 bit):
                    00:f6:27:cc:97:61:ab:39:af:7a:3e:0a:52:bf:b8:
                    74:92:71:fb:da:ff:31:dc:39:a4:bc:a3:5a:4e:a0:
                    b9:69:fd:bc:da:c4:bd:b5:c7:09:05:99:b9:20:e5:
                    76:20:3b:aa:72:28:13:a5:c6:db:71:36:bc:a8:df:
                    d9:eb:9f:39:b2:0d:5f:74:ce:92:c4:cb:ea:4f:60:
                    ea:00:66:44:77:00:c7:0d:de:b7:1d:1d:16:7f:47:
                    2d:1b:fe:99:64:4b:ab:fc:08:fb:87:b1:c0:42:04:
                    69:fb:36:48:34:7e:80:49:79:dd:87:f8:aa:85:4f:
                    5f:ca:54:38:84:8a:9d:e7:b7:56:f5:fe:f6:c4:46:
                    4b:87:79:e6:0d:8d:a9:03:9b:6e:a2:1d:39:1a:27:
                    8e:92:8f:15:27:22:88:a7:fc:62:1c:c1:54:15:c9:
                    d8:98:30:56:9c:65:9f:35:18:98:ce:b9:25:f3:f5:
                    cd:4f:23:24:a8:b6:ff:a8:9b:2a:6f:5c:ec:92:23:
                    36:b6:53:62:4a:9a:16:cd:02:c2:12:6e:62:04:31:
                    7d:76:00:37:50:9f:0e:89:89:df:79:84:d0:04:09:
                    44:fd:84:d5:3e:27:11:38:ed:28:77:12:79:af:5b:
                    0d:d3:d6:4f:2c:d6:3d:77:bf:99:31:b9:03:a7:0a:
                    4a:91:bc:e4:9a:06:64:ef:e0:af:9a:68:37:cd:5f:
                    a9:d1:43:5d:28:95:9e:bf:24:b4:e3:4d:db:df:47:
                    96:c6:6d:b3:72:54:fc:a7:95:84:50:27:78:d8:69:
                    e0:d8:2a:1c:e5:d5:6c:1c:41:3f:94:e7:8d:79:60:
                    38:cd:49:79:f4:13:a1:71:40:c7:35:61:57:73:b1:
                    ee:36:00:5c:82:84:76:12:04:75:0d:7a:3e:a6:3b:
                    6f:b0:70:7e:01:05:0f:13:d3:b8:fc:c5:64:cc:49:
                    3a:d2:1a:0e:15:c0:a6:b2:6d:ee:de:40:57:d3:ae:
                    13:df:43:ab:a1:c7:ba:b9:d3:72:af:39:98:97:2f:
                    24:4d:de:80:34:8f:d7:da:20:d3:67:98:71:8e:71:
                    59:e4:ea:1f:0a:b0:53:8a:8d:b3:02:a4:21:32:04:
                    80:1d:c9:41:c8:76:d8:a2:ba:bb:5f:78:bb:4e:05:
                    f3:38:ac:55:4b:be:75:47:cc:5d:b6:c0:15:21:d5:
                    26:b0:44:f5:aa:6e:e2:c6:a5:d1:37:8b:dc:fd:fb:
                    5c:f7:e0:a7:f8:cd:5f:47:ff:cc:b6:08:70:31:10:
                    6c:31:f3:28:28:62:05:09:74:a6:90:ea:55:1f:a1:
                    fc:ef:e1:32:09:e0:38:84:eb:b4:8f:ef:11:c7:a2:
                    ca:09:a1
                Exponent: 65537 (0x10001)
        X509v3 extensions:
            X509v3 Basic Constraints: 
                CA:FALSE
            Netscape Comment: 
                OpenSSL Generated Certificate
            X509v3 Subject Key Identifier: 
                44:CB:8E:08:66:43:B8:C2:68:3E:D5:C3:44:8D:3A:01:38:99:BB:9F
            X509v3 Authority Key Identifier: 
                DirName:/C=US/ST=Michigan/O=LON-CAPA/CN=LON-CAPA Consortium
                serial:C8:99:C9:69:8A:A1:0C:94

    Signature Algorithm: sha1WithRSAEncryption
        62:ee:10:9b:94:75:f8:53:8e:a2:aa:ec:2e:ad:91:e3:d2:b9:
        dd:0c:69:6a:96:8e:1a:0e:39:9b:27:58:e6:15:57:ff:15:12:
        97:a3:64:d5:c8:19:22:51:e6:d5:53:ed:1b:e2:b3:c7:de:09:
        fd:4a:5d:1f:a1:aa:8a:b1:fd:f6:cd:64:18:45:ce:de:41:11:
        dc:16:be:a3:5e:d2:52:07:cc:72:0f:d0:35:7f:9f:7d:7f:44:
        04:96:55:f2:8b:4e:2c:ff:8d:3c:ed:4f:81:99:51:94:64:f4:
        25:56:c6:ba:b0:d1:7b:8d:d1:eb:f2:8e:49:fe:95:52:a5:e3:
        34:8d:6c:78:ae:58:4b:f9:50:a4:73:bd:4e:84:51:25:d0:a9:
        74:42:66:85:c7:96:a1:4d:cc:37:dc:94:a3:d9:67:0f:a9:27:
        c1:b1:53:f4:ee:8b:a0:b6:a6:fc:9d:81:62:ec:65:ed:59:93:
        96:28:91:c8:a0:6a:bd:8c:69:d3:fd:a9:f9:90:35:de:de:6e:
        78:26:9f:a6:e3:7a:4d:3a:e7:90:2e:22:6f:2f:37:3b:88:63:
        11:d9:3c:9c:fc:30:45:cb:d7:66:70:fd:63:84:8c:42:ff:c2:
        db:e7:8d:3d:cc:27:72:b7:71:6a:96:47:0e:99:66:e1:94:c8:
        92:66:68:e9:db:d3:22:f0:88:4d:f5:8c:b1:d1:b5:b5:f7:df:
        3d:98:fe:9b:3c:0d:00:c0:6d:2d:ed:50:0b:c8:f2:57:d0:d1:
        07:8f:e0:21:a6:35:fe:e1:1e:0f:03:b7:71:a7:ed:79:a0:bb:
        ad:af:93:73:9a:a1:a9:91:1f:ef:5e:c2:3c:bb:75:ce:02:0c:
        ee:0d:34:88:d1:68:0c:13:bd:08:a7:5a:a2:d7:1a:28:23:fb:
        ca:c5:00:41:7e:34:c6:7c:58:e8:18:73:e3:fe:4f:e3:9e:b6:
        64:f4:76:b2:ee:2e:d6:46:d4:86:f9:29:74:d1:4c:1d:29:88:
        f5:cb:1d:a7:3b:6b:34:5c:2c:37:2f:b9:86:6e:cf:16:6e:52:
        9a:9c:14:76:52:95:9e:ee:c5:3d:d7:9a:7d:06:a0:7f:39:73:
        38:65:ed:b6:b2:90:03:c2:e4:aa:3a:fe:46:03:7e:bd:cc:d2:
        c3:cf:1f:69:8f:a0:92:2b:57:e8:b1:dd:d9:b6:e8:71:ca:6d:
        30:51:f6:da:be:bf:5d:c5:d8:bd:d1:cd:61:34:9a:a3:f0:a5:
        5d:0e:ac:1a:0b:c8:63:ed:72:54:5a:85:94:bc:9f:e6:a1:71:
        90:e8:e8:f3:36:db:0e:79:d8:12:f6:ec:1b:73:07:8f:ac:59:
        6f:c3:63:b1:3d:98:20:79
-----BEGIN CERTIFICATE-----
MIIF5TCCA82gAwIBAgIBBzANBgkqhkiG9w0BAQUFADBRMQswCQYDVQQGEwJVUzER
MA8GA1UECBMITWljaGlnYW4xETAPBgNVBAoTCExPTi1DQVBBMRwwGgYDVQQDExNM
T04tQ0FQQSBDb25zb3J0aXVtMB4XDTE0MDMwNjE0NTgyMloXDTI0MDMwMzE0NTgy
MlowUDELMAkGA1UEBhMCVVMxETAPBgNVBAgTCE1pY2hpZ2FuMREwDwYDVQQKEwhM
T04tQ0FQQTEbMBkGA1UEAxMSemFwaG9kLmxvY2FsZG9tYWluMIICIjANBgkqhkiG
9w0BAQEFAAOCAg8AMIICCgKCAgEA9ifMl2GrOa96PgpSv7h0knH72v8x3DmkvKNa
TqC5af282sS9tccJBZm5IOV2IDuqcigTpcbbcTa8qN/Z6585sg1fdM6SxMvqT2Dq
AGZEdwDHDd63HR0Wf0ctG/6ZZEur/Aj7h7HAQgRp+zZINH6ASXndh/iqhU9fylQ4
hIqd57dW9f72xEZLh3nmDY2pA5tuoh05GieOko8VJyKIp/xiHMFUFcnYmDBWnGWf
NRiYzrkl8/XNTyMkqLb/qJsqb1zskiM2tlNiSpoWzQLCEm5iBDF9dgA3UJ8OiYnf
eYTQBAlE/YTVPicROO0odxJ5r1sN09ZPLNY9d7+ZMbkDpwpKkbzkmgZk7+Cvmmg3
zV+p0UNdKJWevyS0403b30eWxm2zclT8p5WEUCd42Gng2Coc5dVsHEE/lOeNeWA4
zUl59BOhcUDHNWFXc7HuNgBcgoR2EgR1DXo+pjtvsHB+AQUPE9O4/MVkzEk60hoO
FcCmsm3u3kBX064T30Oroce6udNyrzmYly8kTd6ANI/X2iDTZ5hxjnFZ5OofCrBT
io2zAqQhMgSAHclByHbYorq7X3i7TgXzOKxVS751R8xdtsAVIdUmsET1qm7ixqXR
N4vc/ftc9+Cn+M1fR//MtghwMRBsMfMoKGIFCXSmkOpVH6H87+EyCeA4hOu0j+8R
x6LKCaECAwEAAaOByDCBxTAJBgNVHRMEAjAAMCwGCWCGSAGG+EIBDQQfFh1PcGVu
U1NMIEdlbmVyYXRlZCBDZXJ0aWZpY2F0ZTAdBgNVHQ4EFgQURMuOCGZDuMJoPtXD
RI06ATiZu58wawYDVR0jBGQwYqFVpFMwUTELMAkGA1UEBhMCVVMxETAPBgNVBAgT
CE1pY2hpZ2FuMREwDwYDVQQKEwhMT04tQ0FQQTEcMBoGA1UEAxMTTE9OLUNBUEEg
Q29uc29ydGl1bYIJAMiZyWmKoQyUMA0GCSqGSIb3DQEBBQUAA4ICAQBi7hCblHX4
U46iquwurZHj0rndDGlqlo4aDjmbJ1jmFVf/FRKXo2TVyBkiUebVU+0b4rPH3gn9
Sl0foaqKsf32zWQYRc7eQRHcFr6jXtJSB8xyD9A1f599f0QEllXyi04s/4087U+B
mVGUZPQlVsa6sNF7jdHr8o5J/pVSpeM0jWx4rlhL+VCkc71OhFEl0Kl0QmaFx5ah
Tcw33JSj2WcPqSfBsVP07ougtqb8nYFi7GXtWZOWKJHIoGq9jGnT/an5kDXe3m54
Jp+m43pNOueQLiJvLzc7iGMR2Tyc/DBFy9dmcP1jhIxC/8Lb5409zCdyt3FqlkcO
mWbhlMiSZmjp29Mi8IhN9Yyx0bW19989mP6bPA0AwG0t7VALyPJX0NEHj+AhpjX+
4R4PA7dxp+15oLutr5NzmqGpkR/vXsI8u3XOAgzuDTSI0WgME70Ip1qi1xooI/vK
xQBBfjTGfFjoGHPj/k/jnrZk9Hay7i7WRtSG+Sl00UwdKYj1yx2nO2s0XCw3L7mG
bs8WblKanBR2UpWe7sU915p9BqB/OXM4Ze22spADwuSqOv5GA369zNLDzx9pj6CS
K1fosd3Ztuhxym0wUfbavr9dxdi90c1hNJqj8KVdDqwaC8hj7XJUWoWUvJ/moXGQ
6OjzNtsOedgS9uwbcwePrFlvw2OxPZggeQ==
-----END CERTIFICATE-----
